target datalayout = "e-m:e-p270:32:32-p271:32:32-p272:64:64-i64:64-i128:128-f80:128-n8:16:32:64-S128"
target triple = "x86_64-pc-linux-gnu"

@stbi__g_failure_reason = thread_local global ptr null, align 8
@.str.1 = private unnamed_addr constant [9 x i8] c"outofmem\00", align 1

; Function Attrs: nounwind uwtable
define i32 @stbi__err(ptr noundef %0) #0 {
  %2 = alloca ptr, align 8
  store ptr %0, ptr %2, align 8, !tbaa !7
  %3 = load ptr, ptr %2, align 8, !tbaa !7
  %4 = call align 8 ptr @llvm.threadlocal.address.p0(ptr align 8 @stbi__g_failure_reason)
  store ptr %3, ptr %4, align 8, !tbaa !7
  ret i32 0
}

; Function Attrs: nounwind uwtable
define ptr @stbi__malloc(i64 noundef %0) #0 {
  %2 = alloca i64, align 8
  store i64 %0, ptr %2, align 8, !tbaa !26
  %3 = load i64, ptr %2, align 8, !tbaa !26
  %4 = call noalias ptr @malloc(i64 noundef %3) #14
  ret ptr %4
}

; Function Attrs: nounwind uwtable
define ptr @stbi__convert_16_to_8(ptr noundef %0, i32 noundef %1, i32 noundef %2, i32 noundef %3) #0 {
  %5 = alloca ptr, align 8
  %6 = alloca ptr, align 8
  %7 = alloca i32, align 4
  %8 = alloca i32, align 4
  %9 = alloca i32, align 4
  %10 = alloca i32, align 4
  %11 = alloca i32, align 4
  %12 = alloca ptr, align 8
  %13 = alloca i32, align 4
  store ptr %0, ptr %6, align 8, !tbaa !71
  store i32 %1, ptr %7, align 4, !tbaa !9
  store i32 %2, ptr %8, align 4, !tbaa !9
  store i32 %3, ptr %9, align 4, !tbaa !9
  call void @llvm.lifetime.start.p0(i64 4, ptr %10) #13
  call void @llvm.lifetime.start.p0(i64 4, ptr %11) #13
  %14 = load i32, ptr %7, align 4, !tbaa !9
  %15 = load i32, ptr %8, align 4, !tbaa !9
  %16 = mul nsw i32 %14, %15
  %17 = load i32, ptr %9, align 4, !tbaa !9
  %18 = mul nsw i32 %16, %17
  store i32 %18, ptr %11, align 4, !tbaa !9
  call void @llvm.lifetime.start.p0(i64 8, ptr %12) #13
  %19 = load i32, ptr %11, align 4, !tbaa !9
  %20 = sext i32 %19 to i64
  %21 = call ptr @stbi__malloc(i64 noundef %20)
  store ptr %21, ptr %12, align 8, !tbaa !7
  %22 = load ptr, ptr %12, align 8, !tbaa !7
  %23 = icmp eq ptr %22, null
  br i1 %23, label %24, label %30

24:                                               ; preds = %4
  %25 = call i32 @stbi__err(ptr noundef @.str.1)
  %26 = icmp ne i32 %25, 0
  %27 = select i1 %26, ptr null, ptr null
  %28 = ptrtoint ptr %27 to i64
  %29 = inttoptr i64 %28 to ptr
  store ptr %29, ptr %5, align 8
  store i32 1, ptr %13, align 4
  br label %55

30:                                               ; preds = %4
  store i32 0, ptr %10, align 4, !tbaa !9
  br label %31

31:                                               ; preds = %49, %30
  %32 = load i32, ptr %10, align 4, !tbaa !9
  %33 = load i32, ptr %11, align 4, !tbaa !9
  %34 = icmp slt i32 %32, %33
  br i1 %34, label %35, label %52

35:                                               ; preds = %31
  %36 = load ptr, ptr %6, align 8, !tbaa !71
  %37 = load i32, ptr %10, align 4, !tbaa !9
  %38 = sext i32 %37 to i64
  %39 = getelementptr inbounds i16, ptr %36, i64 %38
  %40 = load i16, ptr %39, align 2, !tbaa !73
  %41 = zext i16 %40 to i32
  %42 = ashr i32 %41, 8
  %43 = and i32 %42, 255
  %44 = trunc i32 %43 to i8
  %45 = load ptr, ptr %12, align 8, !tbaa !7
  %46 = load i32, ptr %10, align 4, !tbaa !9
  %47 = sext i32 %46 to i64
  %48 = getelementptr inbounds i8, ptr %45, i64 %47
  store i8 %44, ptr %48, align 1, !tbaa !23
  br label %49

49:                                               ; preds = %35
  %50 = load i32, ptr %10, align 4, !tbaa !9
  %51 = add nsw i32 %50, 1
  store i32 %51, ptr %10, align 4, !tbaa !9
  br label %31, !llvm.loop !108

52:                                               ; preds = %31
  %53 = load ptr, ptr %6, align 8, !tbaa !71
  call void @free(ptr noundef %53) #13
  %54 = load ptr, ptr %12, align 8, !tbaa !7
  store ptr %54, ptr %5, align 8
  store i32 1, ptr %13, align 4
  br label %55

55:                                               ; preds = %52, %24
  call void @llvm.lifetime.end.p0(i64 8, ptr %12) #13
  call void @llvm.lifetime.end.p0(i64 4, ptr %11) #13
  call void @llvm.lifetime.end.p0(i64 4, ptr %10) #13
  %56 = load ptr, ptr %5, align 8
  ret ptr %56
}