; Function Attrs: nounwind memory(write, argmem: readwrite, inaccessiblemem: readwrite) uwtable
define noalias noundef ptr @stbi__convert_16_to_8(ptr noundef captures(none) %0, i32 noundef %1, i32 noundef %2, i32 noundef %3) local_unnamed_addr #17 {
  %5 = mul nsw i32 %2, %1
  %6 = mul nsw i32 %5, %3
  %7 = sext i32 %6 to i64
  %8 = tail call noalias noundef ptr @malloc(i64 noundef %7) #38
  %9 = icmp eq ptr %8, null
  br i1 %9, label %11, label %.preheader

.preheader:                                       ; preds = %4
  %10 = icmp sgt i32 %6, 0
  br i1 %10, label %.lr.ph.preheader, label %._crit_edge

.lr.ph.preheader:                                 ; preds = %.preheader
  %wide.trip.count = zext nneg i32 %6 to i64
  br label %.lr.ph

11:                                               ; preds = %4
  %12 = tail call align 8 ptr @llvm.threadlocal.address.p0(ptr align 8 @stbi__g_failure_reason)
  store ptr @.str.1, ptr %12, align 8, !tbaa !22
  br label %18

.lr.ph:                                           ; preds = %.lr.ph.preheader, %.lr.ph
  %indvars.iv = phi i64 [ 0, %.lr.ph.preheader ], [ %indvars.iv.next, %.lr.ph ]
  %13 = getelementptr inbounds nuw i16, ptr %0, i64 %indvars.iv
  %14 = load i16, ptr %13, align 2, !tbaa !65
  %15 = lshr i16 %14, 8
  %16 = trunc nuw i16 %15 to i8
  %17 = getelementptr inbounds nuw i8, ptr %8, i64 %indvars.iv
  store i8 %16, ptr %17, align 1, !tbaa !21
  %indvars.iv.next = add nuw nsw i64 %indvars.iv, 1
  %exitcond.not = icmp eq i64 %indvars.iv.next, %wide.trip.count
  br i1 %exitcond.not, label %._crit_edge, label %.lr.ph, !llvm.loop !107

._crit_edge:                                      ; preds = %.lr.ph, %.preheader
  tail call void @free(ptr noundef %0) #37
  br label %18

18:                                               ; preds = %._crit_edge, %11
  ret ptr %8
}